target datalayout = "e-m:e-p270:32:32-p271:32:32-p272:64:64-i64:64-i128:128-f80:128-n8:16:32:64-S128"
target triple = "x86_64-unknown-linux-gnu"

%struct.sockaddr = type { i16, [14 x i8] }
%"class.zmq::ip_resolver_options_t" = type { i8, i8, i8, i8, i8, i8 }
%"class.zmq::ip_resolver_t" = type <{ ptr, %"class.zmq::ip_resolver_options_t", [2 x i8] }>
%struct.ifaddrs = type { ptr, ptr, i32, ptr, ptr, %union.anon.1, ptr }
%union.anon.1 = type { ptr }

@stderr = external global ptr, align 8
@.str.2 = private unnamed_addr constant [30 x i8] c"Assertion failed: %s (%s:%d)\0A\00", align 1
@.str.4 = private unnamed_addr constant [111 x i8] c"generated/home/dtcxzyw/WorkSpace/Projects/compilers/llvm-opt-benchmark/bench/libzmq/libzmq/src/ip_resolver.cpp\00", align 1
@.str.6 = private unnamed_addr constant [12 x i8] c"%s (%s:%d)\0A\00", align 1
@.str.7 = private unnamed_addr constant [12 x i8] c"ifa != NULL\00", align 1

; Function Attrs: mustprogress nounwind uwtable
define noundef zeroext i1 @_ZN3zmq21ip_resolver_options_t4ipv6Ev(ptr noundef nonnull align 1 dereferenceable(6) %this) #0 align 2 {
entry:
  %this.addr = alloca ptr, align 8
  store ptr %this, ptr %this.addr, align 8
  %this1 = load ptr, ptr %this.addr, align 8
  %_ipv6_wanted = getelementptr inbounds %"class.zmq::ip_resolver_options_t", ptr %this1, i32 0, i32 2
  %0 = load i8, ptr %_ipv6_wanted, align 1
  %tobool = trunc i8 %0 to i1
  ret i1 %tobool
}

; Function Attrs: mustprogress uwtable
define noundef i32 @_ZN3zmq13ip_resolver_t16resolve_nic_nameEPNS_9ip_addr_tEPKc(ptr noundef nonnull align 8 dereferenceable(14) %this, ptr noundef %ip_addr_, ptr noundef %nic_) #4 align 2 {
entry:
  %retval = alloca i32, align 4
  %this.addr = alloca ptr, align 8
  %ip_addr_.addr = alloca ptr, align 8
  %nic_.addr = alloca ptr, align 8
  %ifa = alloca ptr, align 8
  %rc = alloca i32, align 4
  %max_attempts = alloca i32, align 4
  %backoff_msec = alloca i32, align 4
  %i = alloca i32, align 4
  %errstr = alloca ptr, align 8
  %found = alloca i8, align 1
  %ifp = alloca ptr, align 8
  %family = alloca i32, align 4
  store ptr %this, ptr %this.addr, align 8
  store ptr %ip_addr_, ptr %ip_addr_.addr, align 8
  store ptr %nic_, ptr %nic_.addr, align 8
  %this1 = load ptr, ptr %this.addr, align 8
  store ptr null, ptr %ifa, align 8
  store i32 0, ptr %rc, align 4
  store i32 10, ptr %max_attempts, align 4
  store i32 1, ptr %backoff_msec, align 4
  store i32 0, ptr %i, align 4
  br label %for.cond

for.cond:                                         ; preds = %for.inc, %entry
  %0 = load i32, ptr %i, align 4
  %cmp = icmp slt i32 %0, 10
  br i1 %cmp, label %for.body, label %for.end

for.body:                                         ; preds = %for.cond
  %call = call i32 @getifaddrs(ptr noundef %ifa) #10
  store i32 %call, ptr %rc, align 4
  %1 = load i32, ptr %rc, align 4
  %cmp2 = icmp eq i32 %1, 0
  br i1 %cmp2, label %if.then, label %lor.lhs.false

lor.lhs.false:                                    ; preds = %for.body
  %2 = load i32, ptr %rc, align 4
  %cmp3 = icmp slt i32 %2, 0
  br i1 %cmp3, label %land.lhs.true, label %if.end

land.lhs.true:                                    ; preds = %lor.lhs.false
  %call4 = call ptr @__errno_location() #9
  %3 = load i32, ptr %call4, align 4
  %cmp5 = icmp ne i32 %3, 111
  br i1 %cmp5, label %if.then, label %if.end

if.then:                                          ; preds = %land.lhs.true, %for.body
  br label %for.end

if.end:                                           ; preds = %land.lhs.true, %lor.lhs.false
  %4 = load i32, ptr %i, align 4
  %shl = shl i32 1, %4
  %mul = mul nsw i32 %shl, 1000
  %call6 = call i32 @usleep(i32 noundef %mul)
  br label %for.inc

for.inc:                                          ; preds = %if.end
  %5 = load i32, ptr %i, align 4
  %inc = add nsw i32 %5, 1
  store i32 %inc, ptr %i, align 4
  br label %for.cond, !llvm.loop !4

for.end:                                          ; preds = %if.then, %for.cond
  %6 = load i32, ptr %rc, align 4
  %cmp7 = icmp ne i32 %6, 0
  br i1 %cmp7, label %land.lhs.true8, label %if.end16

land.lhs.true8:                                   ; preds = %for.end
  %call9 = call ptr @__errno_location() #9
  %7 = load i32, ptr %call9, align 4
  %cmp10 = icmp eq i32 %7, 22
  br i1 %cmp10, label %if.then14, label %lor.lhs.false11

lor.lhs.false11:                                  ; preds = %land.lhs.true8
  %call12 = call ptr @__errno_location() #9
  %8 = load i32, ptr %call12, align 4
  %cmp13 = icmp eq i32 %8, 95
  br i1 %cmp13, label %if.then14, label %if.end16

if.then14:                                        ; preds = %lor.lhs.false11, %land.lhs.true8
  %call15 = call ptr @__errno_location() #9
  store i32 19, ptr %call15, align 4
  store i32 -1, ptr %retval, align 4
  br label %return

if.end16:                                         ; preds = %lor.lhs.false11, %for.end
  br label %do.body

do.body:                                          ; preds = %if.end16
  %9 = load i32, ptr %rc, align 4
  %cmp17 = icmp eq i32 %9, 0
  %lnot = xor i1 %cmp17, true
  br i1 %lnot, label %if.then18, label %if.end23

if.then18:                                        ; preds = %do.body
  %call19 = call ptr @__errno_location() #9
  %10 = load i32, ptr %call19, align 4
  %call20 = call ptr @strerror(i32 noundef %10) #10
  store ptr %call20, ptr %errstr, align 8
  %11 = load ptr, ptr @stderr, align 8
  %12 = load ptr, ptr %errstr, align 8
  %call21 = call i32 (ptr, ptr, ...) @fprintf(ptr noundef %11, ptr noundef @.str.6, ptr noundef %12, ptr noundef @.str.4, i32 noundef 542)
  %13 = load ptr, ptr @stderr, align 8
  %call22 = call i32 @fflush(ptr noundef %13)
  %14 = load ptr, ptr %errstr, align 8
  call void @_ZN3zmq9zmq_abortEPKc(ptr noundef %14)
  br label %if.end23

if.end23:                                         ; preds = %if.then18, %do.body
  br label %do.end

do.end:                                           ; preds = %if.end23
  br label %do.body24

do.body24:                                        ; preds = %do.end
  %15 = load ptr, ptr %ifa, align 8
  %cmp25 = icmp ne ptr %15, null
  %lnot26 = xor i1 %cmp25, true
  br i1 %lnot26, label %if.then27, label %if.end30

if.then27:                                        ; preds = %do.body24
  %16 = load ptr, ptr @stderr, align 8
  %call28 = call i32 (ptr, ptr, ...) @fprintf(ptr noundef %16, ptr noundef @.str.2, ptr noundef @.str.7, ptr noundef @.str.4, i32 noundef 543)
  %17 = load ptr, ptr @stderr, align 8
  %call29 = call i32 @fflush(ptr noundef %17)
  call void @_ZN3zmq9zmq_abortEPKc(ptr noundef @.str.7)
  br label %if.end30

if.end30:                                         ; preds = %if.then27, %do.body24
  br label %do.end31

do.end31:                                         ; preds = %if.end30
  store i8 0, ptr %found, align 1
  %18 = load ptr, ptr %ifa, align 8
  store ptr %18, ptr %ifp, align 8
  br label %for.cond32

for.cond32:                                       ; preds = %for.inc48, %do.end31
  %19 = load ptr, ptr %ifp, align 8
  %cmp33 = icmp ne ptr %19, null
  br i1 %cmp33, label %for.body34, label %for.end49

for.body34:                                       ; preds = %for.cond32
  %20 = load ptr, ptr %ifp, align 8
  %ifa_addr = getelementptr inbounds %struct.ifaddrs, ptr %20, i32 0, i32 3
  %21 = load ptr, ptr %ifa_addr, align 8
  %cmp35 = icmp eq ptr %21, null
  br i1 %cmp35, label %if.then36, label %if.end37

if.then36:                                        ; preds = %for.body34
  br label %for.inc48

if.end37:                                         ; preds = %for.body34
  %22 = load ptr, ptr %ifp, align 8
  %ifa_addr38 = getelementptr inbounds %struct.ifaddrs, ptr %22, i32 0, i32 3
  %23 = load ptr, ptr %ifa_addr38, align 8
  %sa_family = getelementptr inbounds %struct.sockaddr, ptr %23, i32 0, i32 0
  %24 = load i16, ptr %sa_family, align 2
  %conv = zext i16 %24 to i32
  store i32 %conv, ptr %family, align 4
  %25 = load i32, ptr %family, align 4
  %_options = getelementptr inbounds %"class.zmq::ip_resolver_t", ptr %this1, i32 0, i32 1
  %call39 = call noundef zeroext i1 @_ZN3zmq21ip_resolver_options_t4ipv6Ev(ptr noundef nonnull align 1 dereferenceable(6) %_options)
  %cond = select i1 %call39, i32 10, i32 2
  %cmp40 = icmp eq i32 %25, %cond
  br i1 %cmp40, label %land.lhs.true41, label %if.end47

land.lhs.true41:                                  ; preds = %if.end37
  %26 = load ptr, ptr %nic_.addr, align 8
  %27 = load ptr, ptr %ifp, align 8
  %ifa_name = getelementptr inbounds %struct.ifaddrs, ptr %27, i32 0, i32 1
  %28 = load ptr, ptr %ifa_name, align 8
  %call42 = call i32 @strcmp(ptr noundef %26, ptr noundef %28) #11
  %tobool = icmp ne i32 %call42, 0
  br i1 %tobool, label %if.end47, label %if.then43

if.then43:                                        ; preds = %land.lhs.true41
  %29 = load ptr, ptr %ip_addr_.addr, align 8
  %30 = load ptr, ptr %ifp, align 8
  %ifa_addr44 = getelementptr inbounds %struct.ifaddrs, ptr %30, i32 0, i32 3
  %31 = load ptr, ptr %ifa_addr44, align 8
  %32 = load i32, ptr %family, align 4
  %cmp45 = icmp eq i32 %32, 2
  %cond46 = select i1 %cmp45, i64 16, i64 28
  call void @llvm.memcpy.p0.p0.i64(ptr align 4 %29, ptr align 2 %31, i64 %cond46, i1 false)
  store i8 1, ptr %found, align 1
  br label %for.end49

if.end47:                                         ; preds = %land.lhs.true41, %if.end37
  br label %for.inc48

for.inc48:                                        ; preds = %if.end47, %if.then36
  %33 = load ptr, ptr %ifp, align 8
  %ifa_next = getelementptr inbounds %struct.ifaddrs, ptr %33, i32 0, i32 0
  %34 = load ptr, ptr %ifa_next, align 8
  store ptr %34, ptr %ifp, align 8
  br label %for.cond32, !llvm.loop !6

for.end49:                                        ; preds = %if.then43, %for.cond32
  %35 = load ptr, ptr %ifa, align 8
  call void @freeifaddrs(ptr noundef %35) #10
  %36 = load i8, ptr %found, align 1
  %tobool50 = trunc i8 %36 to i1
  br i1 %tobool50, label %if.end53, label %if.then51

if.then51:                                        ; preds = %for.end49
  %call52 = call ptr @__errno_location() #9
  store i32 19, ptr %call52, align 4
  store i32 -1, ptr %retval, align 4
  br label %return

if.end53:                                         ; preds = %for.end49
  store i32 0, ptr %retval, align 4
  br label %return

return:                                           ; preds = %if.end53, %if.then51, %if.then14
  %37 = load i32, ptr %retval, align 4
  ret i32 %37
}