; Function Attrs: mustprogress uwtable
define noundef i32 @_ZN3zmq13ip_resolver_t16resolve_nic_nameEPNS_9ip_addr_tEPKc(ptr nocapture noundef nonnull readonly align 8 dereferenceable(14) %this, ptr nocapture noundef writeonly %ip_addr_, ptr nocapture noundef readonly %nic_) local_unnamed_addr #9 align 2 {
entry:
  %ifa = alloca ptr, align 8
  store ptr null, ptr %ifa, align 8
  br label %for.body

for.body:                                         ; preds = %entry, %if.end
  %i.024 = phi i32 [ 0, %entry ], [ %inc, %if.end ]
  %call = call i32 @getifaddrs(ptr noundef nonnull %ifa) #18
  %cmp2 = icmp eq i32 %call, 0
  br i1 %cmp2, label %do.body24, label %lor.lhs.false

lor.lhs.false:                                    ; preds = %for.body
  %cmp3 = icmp slt i32 %call, 0
  br i1 %cmp3, label %land.lhs.true, label %if.end

land.lhs.true:                                    ; preds = %lor.lhs.false
  %call4 = tail call ptr @__errno_location() #17
  %0 = load i32, ptr %call4, align 4
  %cmp5.not = icmp eq i32 %0, 111
  br i1 %cmp5.not, label %if.end, label %land.lhs.true8

if.end:                                           ; preds = %land.lhs.true, %lor.lhs.false
  %mul14 = shl nuw nsw i32 1000, %i.024
  %call6 = call i32 @usleep(i32 noundef %mul14)
  %inc = add nuw nsw i32 %i.024, 1
  %exitcond.not = icmp eq i32 %inc, 10
  br i1 %exitcond.not, label %if.end.land.lhs.true8_crit_edge, label %for.body, !llvm.loop !5

if.end.land.lhs.true8_crit_edge:                  ; preds = %if.end
  %.pre = tail call ptr @__errno_location() #17
  %.pr = load i32, ptr %.pre, align 4
  br label %land.lhs.true8

land.lhs.true8:                                   ; preds = %land.lhs.true, %if.end.land.lhs.true8_crit_edge
  %1 = phi i32 [ %.pr, %if.end.land.lhs.true8_crit_edge ], [ %0, %land.lhs.true ]
  %call9.pre-phi = phi ptr [ %.pre, %if.end.land.lhs.true8_crit_edge ], [ %call4, %land.lhs.true ]
  switch i32 %1, label %if.then18 [
    i32 22, label %if.then14
    i32 95, label %if.then14
  ]

if.then14:                                        ; preds = %land.lhs.true8, %land.lhs.true8
  store i32 19, ptr %call9.pre-phi, align 4
  br label %return

if.then18:                                        ; preds = %land.lhs.true8
  %call20 = call ptr @strerror(i32 noundef %1) #18
  %2 = load ptr, ptr @stderr, align 8
  %call21 = call i32 (ptr, ptr, ...) @fprintf(ptr noundef %2, ptr noundef nonnull @.str.6, ptr noundef %call20, ptr noundef nonnull @.str.4, i32 noundef 542) #20
  %3 = load ptr, ptr @stderr, align 8
  %call22 = call i32 @fflush(ptr noundef %3)
  call void @_ZN3zmq9zmq_abortEPKc(ptr noundef %call20)
  br label %do.body24

do.body24:                                        ; preds = %for.body, %if.then18
  %4 = load ptr, ptr %ifa, align 8
  %cmp25.not = icmp eq ptr %4, null
  br i1 %cmp25.not, label %do.end31, label %for.body34.lr.ph

do.end31:                                         ; preds = %do.body24
  %5 = load ptr, ptr @stderr, align 8
  %call28 = call i32 (ptr, ptr, ...) @fprintf(ptr noundef %5, ptr noundef nonnull @.str.2, ptr noundef nonnull @.str.7, ptr noundef nonnull @.str.4, i32 noundef 543) #20
  %6 = load ptr, ptr @stderr, align 8
  %call29 = call i32 @fflush(ptr noundef %6)
  call void @_ZN3zmq9zmq_abortEPKc(ptr noundef nonnull @.str.7)
  %ifp.025.pre = load ptr, ptr %ifa, align 8
  %cmp33.not.not26 = icmp eq ptr %ifp.025.pre, null
  br i1 %cmp33.not.not26, label %if.then51, label %for.body34.lr.ph

for.body34.lr.ph:                                 ; preds = %do.body24, %do.end31
  %7 = phi ptr [ %ifp.025.pre, %do.end31 ], [ %4, %do.body24 ]
  %_ipv6_wanted.i = getelementptr inbounds i8, ptr %this, i64 10
  %8 = load i8, ptr %_ipv6_wanted.i, align 2
  %9 = and i8 %8, 1
  %tobool.i.not = icmp eq i8 %9, 0
  %cond = select i1 %tobool.i.not, i32 2, i32 10
  br label %for.body34

for.body34:                                       ; preds = %for.body34.lr.ph, %for.inc48
  %ifp.027 = phi ptr [ %7, %for.body34.lr.ph ], [ %ifp.0, %for.inc48 ]
  %ifa_addr = getelementptr inbounds i8, ptr %ifp.027, i64 24
  %10 = load ptr, ptr %ifa_addr, align 8
  %cmp35 = icmp eq ptr %10, null
  br i1 %cmp35, label %for.inc48, label %if.end37

if.end37:                                         ; preds = %for.body34
  %11 = load i16, ptr %10, align 2
  %conv = zext i16 %11 to i32
  %cmp40 = icmp eq i32 %cond, %conv
  br i1 %cmp40, label %land.lhs.true41, label %for.inc48

land.lhs.true41:                                  ; preds = %if.end37
  %ifa_name = getelementptr inbounds i8, ptr %ifp.027, i64 8
  %12 = load ptr, ptr %ifa_name, align 8
  %call42 = call i32 @strcmp(ptr noundef nonnull dereferenceable(1) %nic_, ptr noundef nonnull dereferenceable(1) %12) #19
  %tobool.not = icmp eq i32 %call42, 0
  br i1 %tobool.not, label %if.then43, label %for.inc48

if.then43:                                        ; preds = %land.lhs.true41
  %cmp45 = icmp eq i16 %11, 2
  %cond46 = select i1 %cmp45, i64 16, i64 28
  call void @llvm.memcpy.p0.p0.i64(ptr noundef nonnull align 4 dereferenceable(16) %ip_addr_, ptr noundef nonnull align 2 dereferenceable(16) %10, i64 %cond46, i1 false)
  call void @freeifaddrs(ptr noundef nonnull %7) #18
  br label %return

for.inc48:                                        ; preds = %if.end37, %land.lhs.true41, %for.body34
  %ifp.0 = load ptr, ptr %ifp.027, align 8
  %cmp33.not.not = icmp eq ptr %ifp.0, null
  br i1 %cmp33.not.not, label %if.then51, label %for.body34, !llvm.loop !7

if.then51:                                        ; preds = %for.inc48, %do.end31
  %13 = phi ptr [ null, %do.end31 ], [ %7, %for.inc48 ]
  call void @freeifaddrs(ptr noundef %13) #18
  %call52 = tail call ptr @__errno_location() #17
  store i32 19, ptr %call52, align 4
  br label %return

return:                                           ; preds = %if.then43, %if.then51, %if.then14
  %retval.0 = phi i32 [ -1, %if.then14 ], [ -1, %if.then51 ], [ 0, %if.then43 ]
  ret i32 %retval.0
}